target datalayout = "e-m:e-p270:32:32-p271:32:32-p272:64:64-i64:64-i128:128-f80:128-n8:16:32:64-S128"
target triple = "x86_64-pc-linux-gnu"

%struct.gid_cb_st = type { ptr, i64, i64, ptr, i64, i64, ptr, i64, i64, ptr, i64, i32 }

@.str.2 = private unnamed_addr constant [24 x i8] c"../openssl/ssl/t1_lib.c\00", align 1
@__func__.tls1_set_groups_list = private unnamed_addr constant [21 x i8] c"tls1_set_groups_list\00", align 1
@.str.6 = private unnamed_addr constant [21 x i8] c"Syntax error in '%s'\00", align 1
@.str.7 = private unnamed_addr constant [24 x i8] c"No valid groups in '%s'\00", align 1
@.str.8 = private unnamed_addr constant [47 x i8] c"To many keyshares requested in '%s' (max = %d)\00", align 1

; Function Attrs: nounwind uwtable
define i32 @tls1_set_groups_list(ptr noundef %0, ptr noundef %1, ptr noundef %2, ptr noundef %3, ptr noundef %4, ptr noundef %5, ptr noundef %6, ptr noundef %7) #1 {
  %9 = alloca i32, align 4
  %10 = alloca ptr, align 8
  %11 = alloca ptr, align 8
  %12 = alloca ptr, align 8
  %13 = alloca ptr, align 8
  %14 = alloca ptr, align 8
  %15 = alloca ptr, align 8
  %16 = alloca ptr, align 8
  %17 = alloca ptr, align 8
  %18 = alloca i64, align 8
  %19 = alloca i64, align 8
  %20 = alloca i32, align 4
  %21 = alloca i32, align 4
  %22 = alloca %struct.gid_cb_st, align 8
  %23 = alloca i32, align 4
  store ptr %0, ptr %10, align 8, !tbaa !80
  store ptr %1, ptr %11, align 8, !tbaa !134
  store ptr %2, ptr %12, align 8, !tbaa !136
  store ptr %3, ptr %13, align 8, !tbaa !134
  store ptr %4, ptr %14, align 8, !tbaa !136
  store ptr %5, ptr %15, align 8, !tbaa !147
  store ptr %6, ptr %16, align 8, !tbaa !136
  store ptr %7, ptr %17, align 8, !tbaa !172
  call void @llvm.lifetime.start.p0(i64 8, ptr %18) #8
  call void @llvm.lifetime.start.p0(i64 8, ptr %19) #8
  call void @llvm.lifetime.start.p0(i64 4, ptr %20) #8
  store i32 0, ptr %20, align 4, !tbaa !128
  call void @llvm.lifetime.start.p0(i64 4, ptr %21) #8
  store i32 0, ptr %21, align 4, !tbaa !128
  call void @llvm.lifetime.start.p0(i64 96, ptr %22) #8
  %24 = load ptr, ptr %10, align 8, !tbaa !80
  %25 = icmp eq ptr %24, null
  br i1 %25, label %26, label %27

26:                                               ; preds = %8
  call void @ERR_new()
  call void @ERR_set_debug(ptr noundef @.str.2, i32 noundef 1639, ptr noundef @__func__.tls1_set_groups_list)
  call void (i32, i32, ptr, ...) @ERR_set_error(i32 noundef 14, i32 noundef 104, ptr noundef null)
  store i32 0, ptr %9, align 4
  store i32 1, ptr %23, align 4
  br label %189

27:                                               ; preds = %8
  call void @llvm.memset.p0.i64(ptr align 8 %22, i8 0, i64 96, i1 false)
  %28 = getelementptr inbounds nuw %struct.gid_cb_st, ptr %22, i32 0, i32 10
  store i64 1, ptr %28, align 8, !tbaa !183
  %29 = getelementptr inbounds nuw %struct.gid_cb_st, ptr %22, i32 0, i32 11
  store i32 0, ptr %29, align 8, !tbaa !185
  %30 = getelementptr inbounds nuw %struct.gid_cb_st, ptr %22, i32 0, i32 1
  store i64 32, ptr %30, align 8, !tbaa !186
  %31 = getelementptr inbounds nuw %struct.gid_cb_st, ptr %22, i32 0, i32 4
  store i64 32, ptr %31, align 8, !tbaa !187
  %32 = getelementptr inbounds nuw %struct.gid_cb_st, ptr %22, i32 0, i32 7
  store i64 32, ptr %32, align 8, !tbaa !188
  %33 = load ptr, ptr %10, align 8, !tbaa !80
  %34 = getelementptr inbounds nuw %struct.gid_cb_st, ptr %22, i32 0, i32 0
  store ptr %33, ptr %34, align 8, !tbaa !189
  %35 = getelementptr inbounds nuw %struct.gid_cb_st, ptr %22, i32 0, i32 1
  %36 = load i64, ptr %35, align 8, !tbaa !186
  %37 = mul i64 %36, 2
  %38 = call noalias ptr @CRYPTO_malloc(i64 noundef %37, ptr noundef @.str.2, i32 noundef 1652)
  %39 = getelementptr inbounds nuw %struct.gid_cb_st, ptr %22, i32 0, i32 3
  store ptr %38, ptr %39, align 8, !tbaa !190
  %40 = getelementptr inbounds nuw %struct.gid_cb_st, ptr %22, i32 0, i32 3
  %41 = load ptr, ptr %40, align 8, !tbaa !190
  %42 = icmp eq ptr %41, null
  br i1 %42, label %43, label %44

43:                                               ; preds = %27
  br label %181

44:                                               ; preds = %27
  %45 = getelementptr inbounds nuw %struct.gid_cb_st, ptr %22, i32 0, i32 4
  %46 = load i64, ptr %45, align 8, !tbaa !187
  %47 = mul i64 %46, 8
  %48 = call noalias ptr @CRYPTO_malloc(i64 noundef %47, ptr noundef @.str.2, i32 noundef 1655)
  %49 = getelementptr inbounds nuw %struct.gid_cb_st, ptr %22, i32 0, i32 6
  store ptr %48, ptr %49, align 8, !tbaa !191
  %50 = getelementptr inbounds nuw %struct.gid_cb_st, ptr %22, i32 0, i32 6
  %51 = load ptr, ptr %50, align 8, !tbaa !191
  %52 = icmp eq ptr %51, null
  br i1 %52, label %53, label %54

53:                                               ; preds = %44
  br label %181

54:                                               ; preds = %44
  %55 = getelementptr inbounds nuw %struct.gid_cb_st, ptr %22, i32 0, i32 6
  %56 = load ptr, ptr %55, align 8, !tbaa !191
  %57 = getelementptr inbounds i64, ptr %56, i64 0
  store i64 0, ptr %57, align 8, !tbaa !3
  %58 = getelementptr inbounds nuw %struct.gid_cb_st, ptr %22, i32 0, i32 7
  %59 = load i64, ptr %58, align 8, !tbaa !188
  %60 = mul i64 %59, 2
  %61 = call noalias ptr @CRYPTO_malloc(i64 noundef %60, ptr noundef @.str.2, i32 noundef 1659)
  %62 = getelementptr inbounds nuw %struct.gid_cb_st, ptr %22, i32 0, i32 9
  store ptr %61, ptr %62, align 8, !tbaa !192
  %63 = getelementptr inbounds nuw %struct.gid_cb_st, ptr %22, i32 0, i32 9
  %64 = load ptr, ptr %63, align 8, !tbaa !192
  %65 = icmp eq ptr %64, null
  br i1 %65, label %66, label %67

66:                                               ; preds = %54
  br label %181

67:                                               ; preds = %54
  %68 = load ptr, ptr %17, align 8, !tbaa !172
  %69 = call i32 @CONF_parse_list(ptr noundef %68, i32 noundef 47, i32 noundef 1, ptr noundef @tuple_cb, ptr noundef %22)
  store i32 %69, ptr %21, align 4, !tbaa !128
  %70 = load i32, ptr %21, align 4, !tbaa !128
  %71 = icmp eq i32 %70, 0
  br i1 %71, label %72, label %73

72:                                               ; preds = %67
  br label %181

73:                                               ; preds = %67
  %74 = load i32, ptr %21, align 4, !tbaa !128
  %75 = icmp eq i32 %74, -1
  br i1 %75, label %76, label %78

76:                                               ; preds = %73
  call void @ERR_new()
  call void @ERR_set_debug(ptr noundef @.str.2, i32 noundef 1672, ptr noundef @__func__.tls1_set_groups_list)
  %77 = load ptr, ptr %17, align 8, !tbaa !172
  call void (i32, i32, ptr, ...) @ERR_set_error(i32 noundef 20, i32 noundef 524550, ptr noundef @.str.6, ptr noundef %77)
  br label %181

78:                                               ; preds = %73
  store i64 0, ptr %19, align 8, !tbaa !3
  store i64 0, ptr %18, align 8, !tbaa !3
  br label %79

79:                                               ; preds = %111, %78
  %80 = load i64, ptr %19, align 8, !tbaa !3
  %81 = getelementptr inbounds nuw %struct.gid_cb_st, ptr %22, i32 0, i32 5
  %82 = load i64, ptr %81, align 8, !tbaa !193
  %83 = icmp ult i64 %80, %82
  br i1 %83, label %84, label %114

84:                                               ; preds = %79
  %85 = getelementptr inbounds nuw %struct.gid_cb_st, ptr %22, i32 0, i32 6
  %86 = load ptr, ptr %85, align 8, !tbaa !191
  %87 = load i64, ptr %19, align 8, !tbaa !3
  %88 = getelementptr inbounds nuw i64, ptr %86, i64 %87
  %89 = load i64, ptr %88, align 8, !tbaa !3
  %90 = icmp eq i64 %89, 0
  br i1 %90, label %91, label %92

91:                                               ; preds = %84
  br label %111

92:                                               ; preds = %84
  %93 = load i64, ptr %19, align 8, !tbaa !3
  %94 = load i64, ptr %18, align 8, !tbaa !3
  %95 = icmp eq i64 %93, %94
  br i1 %95, label %96, label %99

96:                                               ; preds = %92
  %97 = load i64, ptr %18, align 8, !tbaa !3
  %98 = add i64 %97, 1
  store i64 %98, ptr %18, align 8, !tbaa !3
  br label %110

99:                                               ; preds = %92
  %100 = getelementptr inbounds nuw %struct.gid_cb_st, ptr %22, i32 0, i32 6
  %101 = load ptr, ptr %100, align 8, !tbaa !191
  %102 = load i64, ptr %19, align 8, !tbaa !3
  %103 = getelementptr inbounds nuw i64, ptr %101, i64 %102
  %104 = load i64, ptr %103, align 8, !tbaa !3
  %105 = getelementptr inbounds nuw %struct.gid_cb_st, ptr %22, i32 0, i32 6
  %106 = load ptr, ptr %105, align 8, !tbaa !191
  %107 = load i64, ptr %18, align 8, !tbaa !3
  %108 = add i64 %107, 1
  store i64 %108, ptr %18, align 8, !tbaa !3
  %109 = getelementptr inbounds nuw i64, ptr %106, i64 %107
  store i64 %104, ptr %109, align 8, !tbaa !3
  br label %110

110:                                              ; preds = %99, %96
  br label %111

111:                                              ; preds = %110, %91
  %112 = load i64, ptr %19, align 8, !tbaa !3
  %113 = add i64 %112, 1
  store i64 %113, ptr %19, align 8, !tbaa !3
  br label %79, !llvm.loop !194

114:                                              ; preds = %79
  %115 = load i64, ptr %18, align 8, !tbaa !3
  %116 = getelementptr inbounds nuw %struct.gid_cb_st, ptr %22, i32 0, i32 5
  store i64 %115, ptr %116, align 8, !tbaa !193
  %117 = getelementptr inbounds nuw %struct.gid_cb_st, ptr %22, i32 0, i32 2
  %118 = load i64, ptr %117, align 8, !tbaa !195
  %119 = icmp eq i64 %118, 0
  br i1 %119, label %120, label %122

120:                                              ; preds = %114
  call void @ERR_new()
  call void @ERR_set_debug(ptr noundef @.str.2, i32 noundef 1694, ptr noundef @__func__.tls1_set_groups_list)
  %121 = load ptr, ptr %17, align 8, !tbaa !172
  call void (i32, i32, ptr, ...) @ERR_set_error(i32 noundef 20, i32 noundef 524550, ptr noundef @.str.7, ptr noundef %121)
  br label %181

122:                                              ; preds = %114
  %123 = getelementptr inbounds nuw %struct.gid_cb_st, ptr %22, i32 0, i32 8
  %124 = load i64, ptr %123, align 8, !tbaa !196
  %125 = icmp ugt i64 %124, 4
  br i1 %125, label %126, label %128

126:                                              ; preds = %122
  call void @ERR_new()
  call void @ERR_set_debug(ptr noundef @.str.2, i32 noundef 1699, ptr noundef @__func__.tls1_set_groups_list)
  %127 = load ptr, ptr %17, align 8, !tbaa !172
  call void (i32, i32, ptr, ...) @ERR_set_error(i32 noundef 20, i32 noundef 524550, ptr noundef @.str.8, ptr noundef %127, i32 noundef 4)
  br label %181

128:                                              ; preds = %122
  %129 = getelementptr inbounds nuw %struct.gid_cb_st, ptr %22, i32 0, i32 8
  %130 = load i64, ptr %129, align 8, !tbaa !196
  %131 = icmp eq i64 %130, 0
  br i1 %131, label %132, label %137

132:                                              ; preds = %128
  %133 = getelementptr inbounds nuw %struct.gid_cb_st, ptr %22, i32 0, i32 8
  store i64 1, ptr %133, align 8, !tbaa !196
  %134 = getelementptr inbounds nuw %struct.gid_cb_st, ptr %22, i32 0, i32 9
  %135 = load ptr, ptr %134, align 8, !tbaa !192
  %136 = getelementptr inbounds i16, ptr %135, i64 0
  store i16 0, ptr %136, align 2, !tbaa !100
  br label %137

137:                                              ; preds = %132, %128
  %138 = load ptr, ptr %11, align 8, !tbaa !134
  %139 = icmp eq ptr %138, null
  br i1 %139, label %155, label %140

140:                                              ; preds = %137
  %141 = load ptr, ptr %13, align 8, !tbaa !134
  %142 = icmp eq ptr %141, null
  br i1 %142, label %155, label %143

143:                                              ; preds = %140
  %144 = load ptr, ptr %15, align 8, !tbaa !147
  %145 = icmp eq ptr %144, null
  br i1 %145, label %155, label %146

146:                                              ; preds = %143
  %147 = load ptr, ptr %12, align 8, !tbaa !136
  %148 = icmp eq ptr %147, null
  br i1 %148, label %155, label %149

149:                                              ; preds = %146
  %150 = load ptr, ptr %14, align 8, !tbaa !136
  %151 = icmp eq ptr %150, null
  br i1 %151, label %155, label %152

152:                                              ; preds = %149
  %153 = load ptr, ptr %16, align 8, !tbaa !136
  %154 = icmp eq ptr %153, null
  br i1 %154, label %155, label %156

155:                                              ; preds = %152, %149, %146, %143, %140, %137
  store i32 1, ptr %20, align 4, !tbaa !128
  br label %181

156:                                              ; preds = %152
  %157 = load ptr, ptr %11, align 8, !tbaa !134
  %158 = load ptr, ptr %157, align 8, !tbaa !142
  call void @CRYPTO_free(ptr noundef %158, ptr noundef @.str.2, i32 noundef 1732)
  %159 = getelementptr inbounds nuw %struct.gid_cb_st, ptr %22, i32 0, i32 3
  %160 = load ptr, ptr %159, align 8, !tbaa !190
  %161 = load ptr, ptr %11, align 8, !tbaa !134
  store ptr %160, ptr %161, align 8, !tbaa !142
  %162 = getelementptr inbounds nuw %struct.gid_cb_st, ptr %22, i32 0, i32 2
  %163 = load i64, ptr %162, align 8, !tbaa !195
  %164 = load ptr, ptr %12, align 8, !tbaa !136
  store i64 %163, ptr %164, align 8, !tbaa !3
  %165 = load ptr, ptr %13, align 8, !tbaa !134
  %166 = load ptr, ptr %165, align 8, !tbaa !142
  call void @CRYPTO_free(ptr noundef %166, ptr noundef @.str.2, i32 noundef 1735)
  %167 = getelementptr inbounds nuw %struct.gid_cb_st, ptr %22, i32 0, i32 9
  %168 = load ptr, ptr %167, align 8, !tbaa !192
  %169 = load ptr, ptr %13, align 8, !tbaa !134
  store ptr %168, ptr %169, align 8, !tbaa !142
  %170 = getelementptr inbounds nuw %struct.gid_cb_st, ptr %22, i32 0, i32 8
  %171 = load i64, ptr %170, align 8, !tbaa !196
  %172 = load ptr, ptr %14, align 8, !tbaa !136
  store i64 %171, ptr %172, align 8, !tbaa !3
  %173 = load ptr, ptr %15, align 8, !tbaa !147
  %174 = load ptr, ptr %173, align 8, !tbaa !136
  call void @CRYPTO_free(ptr noundef %174, ptr noundef @.str.2, i32 noundef 1738)
  %175 = getelementptr inbounds nuw %struct.gid_cb_st, ptr %22, i32 0, i32 6
  %176 = load ptr, ptr %175, align 8, !tbaa !191
  %177 = load ptr, ptr %15, align 8, !tbaa !147
  store ptr %176, ptr %177, align 8, !tbaa !136
  %178 = getelementptr inbounds nuw %struct.gid_cb_st, ptr %22, i32 0, i32 5
  %179 = load i64, ptr %178, align 8, !tbaa !193
  %180 = load ptr, ptr %16, align 8, !tbaa !136
  store i64 %179, ptr %180, align 8, !tbaa !3
  store i32 1, ptr %9, align 4
  store i32 1, ptr %23, align 4
  br label %189

181:                                              ; preds = %155, %126, %120, %76, %72, %66, %53, %43
  %182 = getelementptr inbounds nuw %struct.gid_cb_st, ptr %22, i32 0, i32 3
  %183 = load ptr, ptr %182, align 8, !tbaa !190
  call void @CRYPTO_free(ptr noundef %183, ptr noundef @.str.2, i32 noundef 1745)
  %184 = getelementptr inbounds nuw %struct.gid_cb_st, ptr %22, i32 0, i32 6
  %185 = load ptr, ptr %184, align 8, !tbaa !191
  call void @CRYPTO_free(ptr noundef %185, ptr noundef @.str.2, i32 noundef 1746)
  %186 = getelementptr inbounds nuw %struct.gid_cb_st, ptr %22, i32 0, i32 9
  %187 = load ptr, ptr %186, align 8, !tbaa !192
  call void @CRYPTO_free(ptr noundef %187, ptr noundef @.str.2, i32 noundef 1747)
  %188 = load i32, ptr %20, align 4, !tbaa !128
  store i32 %188, ptr %9, align 4
  store i32 1, ptr %23, align 4
  br label %189

189:                                              ; preds = %181, %156, %26
  call void @llvm.lifetime.end.p0(i64 96, ptr %22) #8
  call void @llvm.lifetime.end.p0(i64 4, ptr %21) #8
  call void @llvm.lifetime.end.p0(i64 4, ptr %20) #8
  call void @llvm.lifetime.end.p0(i64 8, ptr %19) #8
  call void @llvm.lifetime.end.p0(i64 8, ptr %18) #8
  %190 = load i32, ptr %9, align 4
  ret i32 %190
}