; Function Attrs: nounwind uwtable
define range(i32 0, 2) i32 @tls1_set_groups_list(ptr noundef %0, ptr noundef captures(address_is_null) %1, ptr noundef writeonly captures(address_is_null) %2, ptr noundef captures(address_is_null) %3, ptr noundef writeonly captures(address_is_null) %4, ptr noundef captures(address_is_null) %5, ptr noundef writeonly captures(address_is_null) %6, ptr noundef %7) local_unnamed_addr #2 {
  %9 = alloca %struct.gid_cb_st, align 8
  call void @llvm.lifetime.start.p0(i64 96, ptr nonnull %9) #14
  %10 = icmp eq ptr %0, null
  br i1 %10, label %11, label %12

11:                                               ; preds = %8
  tail call void @ERR_new() #14
  tail call void @ERR_set_debug(ptr noundef nonnull @.str.2, i32 noundef 1639, ptr noundef nonnull @__func__.tls1_set_groups_list) #14
  tail call void (i32, i32, ptr, ...) @ERR_set_error(i32 noundef 14, i32 noundef 104, ptr noundef null) #14
  br label %87

12:                                               ; preds = %8
  %13 = getelementptr inbounds nuw i8, ptr %9, i64 16
  call void @llvm.memset.p0.i64(ptr noundef nonnull align 8 dereferenceable(96) %13, i8 0, i64 80, i1 false)
  %14 = getelementptr inbounds nuw i8, ptr %9, i64 80
  store i64 1, ptr %14, align 8, !tbaa !161
  %15 = getelementptr inbounds nuw i8, ptr %9, i64 8
  store i64 32, ptr %15, align 8, !tbaa !163
  %16 = getelementptr inbounds nuw i8, ptr %9, i64 32
  store i64 32, ptr %16, align 8, !tbaa !164
  %17 = getelementptr inbounds nuw i8, ptr %9, i64 56
  store i64 32, ptr %17, align 8, !tbaa !165
  store ptr %0, ptr %9, align 8, !tbaa !166
  %18 = tail call noalias ptr @CRYPTO_malloc(i64 noundef 64, ptr noundef nonnull @.str.2, i32 noundef 1652) #14
  %19 = getelementptr inbounds nuw i8, ptr %9, i64 24
  store ptr %18, ptr %19, align 8, !tbaa !167
  %20 = icmp eq ptr %18, null
  br i1 %20, label %81, label %21

21:                                               ; preds = %12
  %22 = tail call noalias ptr @CRYPTO_malloc(i64 noundef 256, ptr noundef nonnull @.str.2, i32 noundef 1655) #14
  %23 = getelementptr inbounds nuw i8, ptr %9, i64 48
  store ptr %22, ptr %23, align 8, !tbaa !168
  %24 = icmp eq ptr %22, null
  br i1 %24, label %81, label %25

25:                                               ; preds = %21
  store i64 0, ptr %22, align 8, !tbaa !105
  %26 = tail call noalias ptr @CRYPTO_malloc(i64 noundef 64, ptr noundef nonnull @.str.2, i32 noundef 1659) #14
  %27 = getelementptr inbounds nuw i8, ptr %9, i64 72
  store ptr %26, ptr %27, align 8, !tbaa !169
  %28 = icmp eq ptr %26, null
  br i1 %28, label %81, label %29

29:                                               ; preds = %25
  %30 = call i32 @CONF_parse_list(ptr noundef %7, i32 noundef 47, i32 noundef 1, ptr noundef nonnull @tuple_cb, ptr noundef nonnull %9) #14
  switch i32 %30, label %.preheader [
    i32 0, label %81
    i32 -1, label %34
  ]

.preheader:                                       ; preds = %29
  %31 = getelementptr inbounds nuw i8, ptr %9, i64 40
  %32 = load i64, ptr %31, align 8, !tbaa !170
  %.not = icmp eq i64 %32, 0
  br i1 %.not, label %._crit_edge, label %.lr.ph

.lr.ph:                                           ; preds = %.preheader
  %33 = load ptr, ptr %23, align 8, !tbaa !168
  br label %35

34:                                               ; preds = %29
  call void @ERR_new() #14
  call void @ERR_set_debug(ptr noundef nonnull @.str.2, i32 noundef 1672, ptr noundef nonnull @__func__.tls1_set_groups_list) #14
  call void (i32, i32, ptr, ...) @ERR_set_error(i32 noundef 20, i32 noundef 524550, ptr noundef nonnull @.str.6, ptr noundef %7) #14
  br label %81

35:                                               ; preds = %.lr.ph, %47
  %36 = phi i64 [ %32, %.lr.ph ], [ %48, %47 ]
  %.04254 = phi i64 [ 0, %.lr.ph ], [ %49, %47 ]
  %.04353 = phi i64 [ 0, %.lr.ph ], [ %.1, %47 ]
  %37 = getelementptr inbounds nuw i64, ptr %33, i64 %.04254
  %38 = load i64, ptr %37, align 8, !tbaa !105
  %39 = icmp eq i64 %38, 0
  br i1 %39, label %47, label %40

40:                                               ; preds = %35
  %41 = icmp eq i64 %.04254, %.04353
  br i1 %41, label %42, label %44

42:                                               ; preds = %40
  %43 = add nuw i64 %.04254, 1
  br label %47

44:                                               ; preds = %40
  %45 = add i64 %.04353, 1
  %46 = getelementptr inbounds nuw i64, ptr %33, i64 %.04353
  store i64 %38, ptr %46, align 8, !tbaa !105
  %.pre = load i64, ptr %31, align 8, !tbaa !170
  br label %47

47:                                               ; preds = %42, %44, %35
  %48 = phi i64 [ %36, %35 ], [ %36, %42 ], [ %.pre, %44 ]
  %.1 = phi i64 [ %.04353, %35 ], [ %43, %42 ], [ %45, %44 ]
  %49 = add nuw i64 %.04254, 1
  %50 = icmp ult i64 %49, %48
  br i1 %50, label %35, label %._crit_edge, !llvm.loop !171

._crit_edge:                                      ; preds = %47, %.preheader
  %.043.lcssa = phi i64 [ 0, %.preheader ], [ %.1, %47 ]
  store i64 %.043.lcssa, ptr %31, align 8, !tbaa !170
  %51 = getelementptr inbounds nuw i8, ptr %9, i64 16
  %52 = load i64, ptr %51, align 8, !tbaa !172
  %53 = icmp eq i64 %52, 0
  br i1 %53, label %54, label %55

54:                                               ; preds = %._crit_edge
  call void @ERR_new() #14
  call void @ERR_set_debug(ptr noundef nonnull @.str.2, i32 noundef 1694, ptr noundef nonnull @__func__.tls1_set_groups_list) #14
  call void (i32, i32, ptr, ...) @ERR_set_error(i32 noundef 20, i32 noundef 524550, ptr noundef nonnull @.str.7, ptr noundef %7) #14
  br label %81

55:                                               ; preds = %._crit_edge
  %56 = getelementptr inbounds nuw i8, ptr %9, i64 64
  %57 = load i64, ptr %56, align 8, !tbaa !173
  %58 = icmp ugt i64 %57, 4
  br i1 %58, label %59, label %60

59:                                               ; preds = %55
  call void @ERR_new() #14
  call void @ERR_set_debug(ptr noundef nonnull @.str.2, i32 noundef 1699, ptr noundef nonnull @__func__.tls1_set_groups_list) #14
  call void (i32, i32, ptr, ...) @ERR_set_error(i32 noundef 20, i32 noundef 524550, ptr noundef nonnull @.str.8, ptr noundef %7, i32 noundef 4) #14
  br label %81

60:                                               ; preds = %55
  %61 = icmp eq i64 %57, 0
  br i1 %61, label %62, label %64

62:                                               ; preds = %60
  store i64 1, ptr %56, align 8, !tbaa !173
  %63 = load ptr, ptr %27, align 8, !tbaa !169
  store i16 0, ptr %63, align 2, !tbaa !93
  br label %64

64:                                               ; preds = %62, %60
  %65 = icmp eq ptr %1, null
  %66 = icmp eq ptr %3, null
  %or.cond = or i1 %65, %66
  %67 = icmp eq ptr %5, null
  %or.cond3 = or i1 %or.cond, %67
  %68 = icmp eq ptr %2, null
  %or.cond5 = or i1 %68, %or.cond3
  %69 = icmp eq ptr %4, null
  %or.cond7 = or i1 %69, %or.cond5
  %70 = icmp eq ptr %6, null
  %or.cond9 = or i1 %70, %or.cond7
  br i1 %or.cond9, label %81, label %71

71:                                               ; preds = %64
  %72 = load ptr, ptr %1, align 8, !tbaa !131
  call void @CRYPTO_free(ptr noundef %72, ptr noundef nonnull @.str.2, i32 noundef 1732) #14
  %73 = load ptr, ptr %19, align 8, !tbaa !167
  store ptr %73, ptr %1, align 8, !tbaa !131
  %74 = load i64, ptr %51, align 8, !tbaa !172
  store i64 %74, ptr %2, align 8, !tbaa !105
  %75 = load ptr, ptr %3, align 8, !tbaa !131
  call void @CRYPTO_free(ptr noundef %75, ptr noundef nonnull @.str.2, i32 noundef 1735) #14
  %76 = load ptr, ptr %27, align 8, !tbaa !169
  store ptr %76, ptr %3, align 8, !tbaa !131
  %77 = load i64, ptr %56, align 8, !tbaa !173
  store i64 %77, ptr %4, align 8, !tbaa !105
  %78 = load ptr, ptr %5, align 8, !tbaa !134
  call void @CRYPTO_free(ptr noundef %78, ptr noundef nonnull @.str.2, i32 noundef 1738) #14
  %79 = load ptr, ptr %23, align 8, !tbaa !168
  store ptr %79, ptr %5, align 8, !tbaa !134
  %80 = load i64, ptr %31, align 8, !tbaa !170
  store i64 %80, ptr %6, align 8, !tbaa !105
  br label %87

81:                                               ; preds = %64, %29, %25, %21, %12, %59, %54, %34
  %.0 = phi i32 [ 0, %12 ], [ 0, %21 ], [ 0, %25 ], [ %30, %29 ], [ 0, %34 ], [ 0, %54 ], [ 0, %59 ], [ 1, %64 ]
  %82 = load ptr, ptr %19, align 8, !tbaa !167
  call void @CRYPTO_free(ptr noundef %82, ptr noundef nonnull @.str.2, i32 noundef 1745) #14
  %83 = getelementptr inbounds nuw i8, ptr %9, i64 48
  %84 = load ptr, ptr %83, align 8, !tbaa !168
  call void @CRYPTO_free(ptr noundef %84, ptr noundef nonnull @.str.2, i32 noundef 1746) #14
  %85 = getelementptr inbounds nuw i8, ptr %9, i64 72
  %86 = load ptr, ptr %85, align 8, !tbaa !169
  call void @CRYPTO_free(ptr noundef %86, ptr noundef nonnull @.str.2, i32 noundef 1747) #14
  br label %87

87:                                               ; preds = %81, %71, %11
  %.044 = phi i32 [ 0, %11 ], [ %.0, %81 ], [ 1, %71 ]
  call void @llvm.lifetime.end.p0(i64 96, ptr nonnull %9) #14
  ret i32 %.044
}